target datalayout = "e-m:e-p270:32:32-p271:32:32-p272:64:64-i64:64-i128:128-f80:128-n8:16:32:64-S128"
target triple = "x86_64-pc-linux-gnu"

; Function Attrs: mustprogress nounwind uwtable
define void @_Z8wcsncpyzPwPKwm(ptr noundef %0, ptr noundef %1, i64 noundef %2) #0 {
  %4 = alloca ptr, align 8
  %5 = alloca ptr, align 8
  %6 = alloca i64, align 8
  store ptr %0, ptr %4, align 8
  store ptr %1, ptr %5, align 8
  store i64 %2, ptr %6, align 8
  %7 = load i64, ptr %6, align 8
  %8 = icmp ugt i64 %7, 0
  br i1 %8, label %9, label %28

9:                                                ; preds = %3
  br label %10

10:                                               ; preds = %20, %9
  %11 = load i64, ptr %6, align 8
  %12 = add i64 %11, -1
  store i64 %12, ptr %6, align 8
  %13 = icmp ugt i64 %12, 0
  br i1 %13, label %14, label %18

14:                                               ; preds = %10
  %15 = load ptr, ptr %5, align 8
  %16 = load i32, ptr %15, align 4
  %17 = icmp ne i32 %16, 0
  br label %18

18:                                               ; preds = %14, %10
  %19 = phi i1 [ false, %10 ], [ %17, %14 ]
  br i1 %19, label %20, label %26

20:                                               ; preds = %18
  %21 = load ptr, ptr %5, align 8
  %22 = getelementptr inbounds i32, ptr %21, i32 1
  store ptr %22, ptr %5, align 8
  %23 = load i32, ptr %21, align 4
  %24 = load ptr, ptr %4, align 8
  %25 = getelementptr inbounds i32, ptr %24, i32 1
  store ptr %25, ptr %4, align 8
  store i32 %23, ptr %24, align 4
  br label %10, !llvm.loop !14

26:                                               ; preds = %18
  %27 = load ptr, ptr %4, align 8
  store i32 0, ptr %27, align 4
  br label %28

28:                                               ; preds = %26, %3
  ret void
}