; Function Attrs: mustprogress nofree norecurse nosync nounwind memory(readwrite, inaccessiblemem: none) uwtable
define void @_Z8wcsncpyzPwPKwm(ptr nocapture noundef writeonly %0, ptr nocapture noundef readonly %1, i64 noundef %2) local_unnamed_addr #1 {
  %.not = icmp eq i64 %2, 0
  br i1 %.not, label %11, label %.preheader

.preheader:                                       ; preds = %3
  %4 = add i64 %2, -1
  %.not1012 = icmp eq i64 %4, 0
  br i1 %.not1012, label %.critedge, label %.lr.ph

.lr.ph:                                           ; preds = %.preheader, %7
  %5 = phi i64 [ %10, %7 ], [ %4, %.preheader ]
  %.0514 = phi ptr [ %8, %7 ], [ %1, %.preheader ]
  %.0613 = phi ptr [ %9, %7 ], [ %0, %.preheader ]
  %6 = load i32, ptr %.0514, align 4
  %.not11 = icmp eq i32 %6, 0
  br i1 %.not11, label %.critedge, label %7

7:                                                ; preds = %.lr.ph
  %8 = getelementptr inbounds i8, ptr %.0514, i64 4
  %9 = getelementptr inbounds i8, ptr %.0613, i64 4
  store i32 %6, ptr %.0613, align 4
  %10 = add i64 %5, -1
  %.not10 = icmp eq i64 %10, 0
  br i1 %.not10, label %.critedge, label %.lr.ph, !llvm.loop !14

.critedge:                                        ; preds = %.lr.ph, %7, %.preheader
  %.06.lcssa = phi ptr [ %0, %.preheader ], [ %9, %7 ], [ %.0613, %.lr.ph ]
  store i32 0, ptr %.06.lcssa, align 4
  br label %11

11:                                               ; preds = %.critedge, %3
  ret void
}